; Function Attrs: mustprogress nounwind uwtable
define hidden noundef ptr @_ZN6hermes5irgen11ESTreeIRGen14genBuiltinCallENS_13BuiltinMethod4EnumEN4llvh8ArrayRefIPNS_5ValueEEE(ptr noundef nonnull align 8 dereferenceable(200) %this, i8 noundef zeroext %builtinIndex, ptr %args.coerce0, i64 %args.coerce1) local_unnamed_addr #0 align 2 {
entry:
  %Builder = getelementptr inbounds i8, ptr %this, i64 8
  %call = tail call noundef ptr @_ZN6hermes9IRBuilder21createCallBuiltinInstENS_13BuiltinMethod4EnumEN4llvh8ArrayRefIPNS_5ValueEEE(ptr noundef nonnull align 8 dereferenceable(40) %Builder, i8 noundef zeroext %builtinIndex, ptr %args.coerce0, i64 %args.coerce1) #15
  %0 = icmp eq ptr %call, null
  %add.ptr = getelementptr inbounds i8, ptr %call, i64 16
  %spec.select = select i1 %0, ptr null, ptr %add.ptr
  ret ptr %spec.select
}